ccollections
defaultdict
p0
(c__builtin__
list
p1
tp2
Rp3
S'Steff'
p4
(lp5
S'Stefan'
p6
asS'Van'
p7
(lp8
S'Evangeline'
p9
asS'Web'
p10
(lp11
S'Webster'
p12
asS'Jim'
p13
(lp14
S'James'
p15
asS'Matt'
p16
(lp17
S'Mathew'
p18
aS'Matthias'
p19
asS'Betsy'
p20
(lp21
S'Elizabeth'
p22
asS'Tilly'
p23
(lp24
S'Matilda'
p25
aS'Otilia'
p26
asS'Davy'
p27
(lp28
S'David'
p29
asS'Nadia'
p30
(lp31
S'Nadine'
p32
asS'Cecily'
p33
(lp34
S'Cecilia'
p35
asS'Annette'
p36
(lp37
S'Ann'
p38
aS'Anna'
p39
asS'Iggy'
p40
(lp41
S'Ignatius'
p42
asS'Ronnie'
p43
(lp44
S'Veronica'
p45
asS'Evie'
p46
(lp47
S'Evelyn'
p48
asS'Dan'
p49
(lp50
S'Daniel'
p51
asS'Claus'
p52
(lp53
S'Nicholas'
p54
asS'Lettie'
p55
(lp56
S'Letitia'
p57
asS'Burt'
p58
(lp59
S'Burton'
p60
aS'Egbert'
p61
asS'Elly'
p62
(lp63
S'Eleanor'
p64
asS'Stew'
p65
(lp66
S'Stewart'
p67
asS'Obed'
p68
(lp69
S'Obediah'
p70
asS'Shirley'
p71
(lp72
S'Charlotte'
p73
asS'Ollie'
p74
(lp75
S'Oliver'
p76
asS'Chris'
p77
(lp78
S'Christian'
p79
aS'Christine'
p80
aS'Crystal'
p81
asS'Elaine'
p82
(lp83
S'Eleanor'
p84
asS'Ferry'
p85
(lp86
S'Frank'
p87
aS'Franz'
p88
aS'Xaver'
p89
asS'Sibella'
p90
(lp91
S'Isabella'
p92
asS'Joshua'
p93
(lp94
S'Jasper'
p95
asS'Gwen'
p96
(lp97
S'Gwendolyn'
p98
asS'Bess'
p99
(lp100
S'Elizabeth'
p101
asS'Toby'
p102
(lp103
S'Tobias'
p104
asS'Tad'
p105
(lp106
S'Edward'
p107
aS'Thadeus'
p108
asS'Vern'
p109
(lp110
S'Vernon'
p111
asS'Tobi'
p112
(lp113
S'Tobias'
p114
aS'Tobiah'
p115
asS'Sandy'
p116
(lp117
S'Alexander'
p118
aS'Sandra'
p119
asS'Mitch'
p120
(lp121
S'Mitchell'
p122
asS'Frank'
p123
(lp124
S'Francis'
p125
aS'Franklin'
p126
asS'Silvie'
p127
(lp128
S'Silvia'
p129
asS'Nellie'
p130
(lp131
S'Helen'
p132
asS'Rick'
p133
(lp134
S'Eric'
p135
aS'Frederick'
p136
aS'Garrick'
p137
aS'Patrick'
p138
aS'Richard'
p139
aS'Roderick'
p140
asS'Rich'
p141
(lp142
S'Richard'
p143
asS'Jane'
p144
(lp145
S'Janet'
p146
aS'Virginia'
p147
asS'Reg'
p148
(lp149
S'Reginald'
p150
asS'Bert'
p151
(lp152
S'Egbert'
p153
asS'Janet'
p154
(lp155
S'Jane'
p156
asS'Pug'
p157
(lp158
S'Raymond'
p159
asS'Timmy'
p160
(lp161
S'Timothy'
p162
asS'Patty'
p163
(lp164
S'Martha'
p165
aS'Matilda'
p166
aS'Patricia'
p167
asS'Mick'
p168
(lp169
S'Michael'
p170
asS'Bern'
p171
(lp172
S'Bernice'
p173
asS'Sally'
p174
(lp175
S'Sarah'
p176
asS'Ora'
p177
(lp178
S'Aurillia'
p179
aS'Corinne'
p180
asS'Marty'
p181
(lp182
S'Martha'
p183
asS'Emma'
p184
(lp185
S'Emily'
p186
asS'Susan'
p187
(lp188
S'Sarah'
p189
aS'Susanna'
p190
asS'Charlie'
p191
(lp192
S'Charles'
p193
asS'Prudy'
p194
(lp195
S'Prudence'
p196
asS'Maggy'
p197
(lp198
S'Margaret'
p199
asS'Margie'
p200
(lp201
S'Margaret'
p202
aS'Marjorie'
p203
asS'Russ'
p204
(lp205
S'Russell'
p206
asS'Reggie'
p207
(lp208
S'Reginald'
p209
asS'Heiner'
p210
(lp211
S'Heinrich'
p212
asS'Jennifer'
p213
(lp214
S'Winifred'
p215
asS'Percy'
p216
(lp217
S'Percival'
p218
asS'Andrl'
p219
(lp220
S'Andreas'
p221
asS'Ella'
p222
(lp223
S'Eleanor'
p224
aS'Gabriella'
p225
aS'Luella'
p226
asS'Elsie'
p227
(lp228
S'Elizabeth'
p229
asS'Xina'
p230
(lp231
S'Christina'
p232
asS'Damerl'
p233
(lp234
S'Thomas'
p235
asS'Hiasl'
p236
(lp237
S'Matthias'
p238
asS'Beppe'
p239
(lp240
S'Giuseppe'
p241
asS'Dolly'
p242
(lp243
S'Dorothy'
p244
aS'Idalia'
p245
aS'Margaret'
p246
aS'Martha'
p247
asS'Jed'
p248
(lp249
S'Jedediah'
p250
asS'Tom'
p251
(lp252
S'Thomas'
p253
asS'Beppl'
p254
(lp255
S'Josefa'
p256
asS'Beppo'
p257
(lp258
S'Josef'
p259
asS'Jen'
p260
(lp261
S'Jane'
p262
asS'Rita'
p263
(lp264
S'Clarita'
p265
aS'Margaret'
p266
aS'Margarita'
p267
aS'Norita'
p268
asS'Lena'
p269
(lp270
S'Florina'
p271
aS'Magdalena'
p272
aS'Paulina'
p273
aS'Pauline'
p274
asS'Star'
p275
(lp276
S'Stella'
p277
asS'Cora'
p278
(lp279
S'Corinne'
p280
asS'Leno'
p281
(lp282
S'Felipe'
p283
asS'Fritz'
p284
(lp285
S'Frederick'
p286
asS'Wilhemine'
p287
(lp288
S'Guilelminus'
p289
asS'Stan'
p290
(lp291
S'Stanislas'
p292
aS'Stanly'
p293
asS'Phyl'
p294
(lp295
S'Phyllis'
p296
asS'Cory'
p297
(lp298
S'Cornelius'
p299
asS'Klaus'
p300
(lp301
S'Nicholas'
p302
asS'Ben'
p303
(lp304
S'Benedict'
p305
aS'Benjamin'
p306
aS'Ebenezer'
p307
asS'Lana'
p308
(lp309
S'Eleanor'
p310
asS'Bea'
p311
(lp312
S'Beatta'
p313
aS'Beatrice'
p314
asS'Chuck'
p315
(lp316
S'Charles'
p317
asS'Gus'
p318
(lp319
S'Augustus'
p320
aS'Gustaf'
p321
aS'Gustav'
p322
asS'Bev'
p323
(lp324
S'Beverly'
p325
asS'Della'
p326
(lp327
S'Delilah'
p328
asS'Sukey'
p329
(lp330
S'Suzanna'
p331
asS'Ron'
p332
(lp333
S'Aaron'
p334
aS'Reginald'
p335
aS'Ronald'
p336
asS'Merv'
p337
(lp338
S'Mervin'
p339
asS'Fern'
p340
(lp341
S'Margaret'
p342
asS'Gabby'
p343
(lp344
S'Gabrielle'
p345
asS'Girgl'
p346
(lp347
S'Georg'
p348
asS'Telly'
p349
(lp350
S'Aristotle'
p351
asS'Lorrie'
p352
(lp353
S'Lorraine'
p354
asS'Rob'
p355
(lp356
S'Robert'
p357
asS'Deedee'
p358
(lp359
S'Diedre'
p360
asS'Abe'
p361
(lp362
S'Abel'
p363
aS'Abiel'
p364
aS'Abraham'
p365
aS'Abram'
p366
asS'Ernie'
p367
(lp368
S'Earnest'
p369
aS'Earnestine'
p370
asS'Manthy'
p371
(lp372
S'Samantha'
p373
asS'Ralph'
p374
(lp375
S'Rafaelle'
p376
aS'Raphael'
p377
asS'Jerry'
p378
(lp379
S'Jeremiah'
p380
aS'Jerold'
p381
aS'Gerald'
p382
asS'Nora'
p383
(lp384
S'Eleanor'
p385
aS'Elnora'
p386
aS'Honora'
p387
asS'Sherm'
p388
(lp389
S'Sherman'
p390
asS'Caty'
p391
(lp392
S'Catherine'
p393
asS'Effie'
p394
(lp395
S'Euphemia'
p396
asS'Bastl'
p397
(lp398
S'Sebastian'
p399
asS'Lora'
p400
(lp401
S'Loretta'
p402
asS'Liz'
p403
(lp404
S'Elizabeth'
p405
asS'Cissy'
p406
(lp407
S'Cecilia'
p408
aS'Clarissa'
p409
asS'Rosie'
p410
(lp411
S'Rosalind'
p412
aS'Rose'
p413
aS'Rosemary'
p414
aS'Rosetta'
p415
asS'Molly'
p416
(lp417
S'Martha'
p418
aS'Mary'
p419
asS'Frances'
p420
(lp421
S'Franziska'
p422
asS'Raph'
p423
(lp424
sS'Jack'
p425
(lp426
S'John'
p427
aS'Jackson'
p428
asS'Hettie'
p429
(lp430
S'Henrietta'
p431
aS'Mehetabel'
p432
asS'Kay'
p433
(lp434
S'Kathryn'
p435
asS'Cliff'
p436
(lp437
S'Clifford'
p438
aS'Clifton'
p439
asS'Will'
p440
(lp441
S'William'
p442
asS'Essie'
p443
(lp444
S'Esther'
p445
asS'Hattie'
p446
(lp447
S'Harriet'
p448
asS'Daisy'
p449
(lp450
S'Margaret'
p451
asS'Lisa'
p452
(lp453
S'Elisa'
p454
asS'Dot'
p455
(lp456
S'Dorothy'
p457
asS'Joey'
p458
(lp459
S'Joseph'
p460
asS'Alf'
p461
(lp462
S'Alfons'
p463
aS'Alfred'
p464
asS'Erma'
p465
(lp466
S'Emily'
p467
asS'Moll'
p468
(lp469
S'Martha'
p470
aS'Mary'
p471
asS'Mabel'
p472
(lp473
S'Mehitable'
p474
asS'Fonzo'
p475
(lp476
S'Alfons'
p477
asS'Lottie'
p478
(lp479
S'Charlotte'
p480
asS'Lawrey'
p481
(lp482
S'Lawrence'
p483
asS'Willy'
p484
(lp485
S'William'
p486
asS'Ursy'
p487
(lp488
S'Ursula'
p489
asS'Barney'
p490
(lp491
S'Barnabas'
p492
asS'Trudi'
p493
(lp494
S'Gertrude'
p495
asS'Nana'
p496
(lp497
S'Ann'
p498
aS'Hannah'
p499
aS'Nancy'
p500
asS'Hetty'
p501
(lp502
S'Mehetabel'
p503
asS'Brook'
p504
(lp505
S'Brooklyn'
p506
asS'Jan'
p507
(lp508
S'Jennifer'
p509
asS'Hester'
p510
(lp511
S'Esther'
p512
asS'Ursl'
p513
(lp514
S'Ursula'
p515
asS'Trudy'
p516
(lp517
S'Gertrude'
p518
asS'Millie'
p519
(lp520
S'Amelia'
p521
aS'Emeline'
p522
aS'Mildred'
p523
asS'Stacy'
p524
(lp525
S'Anastasia'
p526
aS'Eustacia'
p527
asS'Abbie'
p528
(lp529
S'Abigail'
p530
asS'Gretl'
p531
(lp532
S'Margaret'
p533
asS'Marce'
p534
(lp535
S'Marcella'
p536
asS'Drew'
p537
(lp538
S'Andrew'
p539
asS'Jennie'
p540
(lp541
S'Jane'
p542
aS'Virginia'
p543
asS'Dora'
p544
(lp545
S'Dorothy'
p546
aS'Eudora'
p547
aS'Isadora'
p548
asS'Marcy'
p549
(lp550
S'Marcia'
p551
asS'Helen'
p552
(lp553
S'Eleanor'
p554
asS'Delia'
p555
(lp556
S'Bridget'
p557
aS'Cordelia'
p558
aS'Fidelia'
p559
asS'Sissi'
p560
(lp561
S'Elizabeth'
p562
asS'Midge'
p563
(lp564
S'Margaret'
p565
asS'Sissy'
p566
(lp567
S'Cecilia'
p568
asS'Cal'
p569
(lp570
S'Caleb'
p571
aS'Calvin'
p572
asS'Zeke'
p573
(lp574
S'Ezekiel'
p575
asS'Milt'
p576
(lp577
S'Milton'
p578
asS'Creasey'
p579
(lp580
S'Lucretia'
p581
asS'Sam'
p582
(lp583
S'Samuel'
p584
asS'Sal'
p585
(lp586
S'Sarah'
p587
asS'Ran'
p588
(lp589
S'Randall'
p590
asS'Kati'
p591
(lp592
S'Katarina'
p593
asS'Kata'
p594
(lp595
S'Katarina'
p596
asS'Arnie'
p597
(lp598
S'Arnold'
p599
asS'Liam'
p600
(lp601
S'William'
p602
asS'Kate'
p603
(lp604
S'Catherine'
p605
asS'Ray'
p606
(lp607
S'Raymond'
p608
asS'Penny'
p609
(lp610
S'Penelope'
p611
asS'Milly'
p612
(lp613
S'Millicent'
p614
asS'Mur'
p615
(lp616
S'Muriel'
p617
asS'Arty'
p618
(lp619
S'Arthur'
p620
asS'Eliza'
p621
(lp622
S'Elizabeth'
p623
asS'Mort'
p624
(lp625
S'Mortimer'
p626
aS'Morton'
p627
asS'Wendy'
p628
(lp629
S'Gwendolen'
p630
asS'Mischa'
p631
(lp632
S'Michael'
p633
asS'Gennie'
p634
(lp635
S'Genevieve'
p636
asS'Fanny'
p637
(lp638
S'Frances'
p639
aS'Veronica'
p640
asS'Ken'
p641
(lp642
S'Kenneth'
p643
asS'Jos'
p644
(lp645
S'Josef'
p646
asS'Prissy'
p647
(lp648
S'Priscilla'
p649
asS'Donnette'
p650
(lp651
S'Donnetta'
p652
asS'Gina'
p653
(lp654
S'Virginia'
p655
asS'Mira'
p656
(lp657
S'Elmira'
p658
aS'Mirabel'
p659
asS'William'
p660
(lp661
S'Guilelmus'
p662
asS'Nelly'
p663
(lp664
S'Cornelia'
p665
aS'Eleanor'
p666
aS'Helen'
p667
asS'Babs'
p668
(lp669
S'Barbara'
p670
asS'Joe'
p671
(lp672
S'Joseph'
p673
asS'Josie'
p674
(lp675
S'Josephine'
p676
asS'Jon'
p677
(lp678
S'Jonathan'
p679
asS'Dicey'
p680
(lp681
S'Edith'
p682
aS'Elizabeth'
p683
aS'Eurydice'
p684
asS'Rodie'
p685
(lp686
S'Rhoda'
p687
asS'Noni'
p688
(lp689
S'Ione'
p690
aS'Nora'
p691
aS'Eleanor'
p692
aS'Elnora'
p693
asS'Nina'
p694
(lp695
S'Ann'
p696
asS'Judy'
p697
(lp698
S'Judith'
p699
asS'Maude'
p700
(lp701
S'Magdalene'
p702
aS'Matilda'
p703
asS'Stophel'
p704
(lp705
S'Christopher'
p706
asS'Dotty'
p707
(lp708
S'Dorothy'
p709
asS'Terza'
p710
(lp711
S'Theresa'
p712
asS'Mamie'
p713
(lp714
S'Margaret'
p715
aS'Mary'
p716
asS'Agnes'
p717
(lp718
S'Agatha'
p719
aS'Nancy'
p720
aS'Inez'
p721
asS'Mickey'
p722
(lp723
S'Michael'
p724
asS'Vic'
p725
(lp726
S'Victor'
p727
asS'Pacho'
p728
(lp729
S'Francisco'
p730
asS'Vina'
p731
(lp732
S'Alvina'
p733
aS'Lavina'
p734
asS'Ed'
p735
(lp736
S'Edmund'
p737
aS'Edward'
p738
aS'Edgar'
p739
asS'Suzy'
p740
(lp741
S'Susan'
p742
aS'Suzanne'
p743
asS'Vin'
p744
(lp745
S'Galvin'
p746
aS'Vincent'
p747
asS'Mattie - Martha'
p748
(lp749
S'Mattie - Martha'
p750
asS'Tilda'
p751
(lp752
S'Matilda'
p753
asS'Viv'
p754
(lp755
S'Vivian'
p756
asS'Acer'
p757
(lp758
S'Acera'
p759
asS'Ev'
p760
(lp761
S'Evangeline'
p762
aS'Evelyn'
p763
asS'Clo'
p764
(lp765
S'Chloe'
p766
asS'Sattie'
p767
(lp768
S'Sarah'
p769
asS'Fran'
p770
(lp771
S'Frances'
p772
asS'Rudi'
p773
(lp774
S'Rudolf'
p775
asS'Larry'
p776
(lp777
S'Lawrence'
p778
asS'Marge'
p779
(lp780
S'Margaret'
p781
aS'Marjorie'
p782
asS'Rudy'
p783
(lp784
S'Rudolph'
p785
asS'Netty'
p786
(lp787
S'Henrietta'
p788
asS'Sepp'
p789
(lp790
S'Josef'
p791
aS'Joseph'
p792
asS'Gene'
p793
(lp794
S'Eugene'
p795
asS'Aggy'
p796
(lp797
S'Agatha'
p798
asS'Ibby'
p799
(lp800
S'Elizabeth'
p801
asS'Rasmus'
p802
(lp803
S'Erasmus'
p804
asS'Rowena'
p805
(lp806
S'Rhoana'
p807
asS'Tia'
p808
(lp809
S'Antonia'
p810
asS'Vi'
p811
(lp812
S'Viola'
p813
aS'Violet'
p814
asS'Pat'
p815
(lp816
S'Martha'
p817
aS'Matilda'
p818
aS'Patricia'
p819
aS'Patrick'
p820
asS'Beattie'
p821
(lp822
S'Beatrice'
p823
asS'Patsy'
p824
(lp825
S'Martha'
p826
aS'Matilda'
p827
aS'Patricia'
p828
asS'Maddie'
p829
(lp830
S'Madeline'
p831
asS'Pam'
p832
(lp833
S'Pamela'
p834
asS'Seby'
p835
(lp836
S'Sebastian'
p837
asS'Lance'
p838
(lp839
S'LeRoy'
p840
asS'Di'
p841
(lp842
S'Diana'
p843
aS'Diane'
p844
asS'Vernie'
p845
(lp846
S'Veronica'
p847
asS'Eck'
p848
(lp849
S'Alexanr'
p850
asS'Addie'
p851
(lp852
S'Adelaide'
p853
asS'Kit'
p854
(lp855
S'Christopher'
p856
asS'Aggie'
p857
(lp858
S'Agnes'
p859
asS'Dewey'
p860
(lp861
S'Duane'
p862
asS'Vonnie'
p863
(lp864
S'Yvonne'
p865
asS'Tish'
p866
(lp867
S'Letitia'
p868
asS'Didi'
p869
(lp870
S'Diana'
p871
aS'Diane'
p872
asS'Lucy'
p873
(lp874
S'Lucille'
p875
aS'Lucinda'
p876
asS'Steffl'
p877
(lp878
S'Stefan'
p879
asS'Archy'
p880
(lp881
S'Archibald'
p882
asS'Nicie'
p883
(lp884
S'Eunice'
p885
asS'Zeb'
p886
(lp887
S'Zebulon'
p888
asS'Chet'
p889
(lp890
S'Chester'
p891
asS'Frankie'
p892
(lp893
S'Frances'
p894
asS'Zed'
p895
(lp896
S'Zedekiah'
p897
asS'Liddie'
p898
(lp899
S'Lydia'
p900
asS'Kissy'
p901
(lp902
S'Calista'
p903
asS'Pancho'
p904
(lp905
S'Francisco'
p906
asS'Virg'
p907
(lp908
S'Virgil'
p909
asS'Sarah'
p910
(lp911
S'Susan'
p912
asS'Lola'
p913
(lp914
S'Delores'
p915
asS'Hal'
p916
(lp917
S'Henry'
p918
asS'Ham'
p919
(lp920
S'Hamilton'
p921
asS'Wes'
p922
(lp923
S'Wesley'
p924
asS'Nita'
p925
(lp926
S'Anita'
p927
aS'Juanita'
p928
asS'Randy'
p929
(lp930
S'Miranda'
p931
aS'Randall'
p932
aS'Randolph'
p933
asS'Tempie'
p934
(lp935
S'Temperance'
p936
asS'Anni'
p937
(lp938
S'Anna'
p939
aS'Annika'
p940
asS'Anne'
p941
(lp942
S'Hannah'
p943
aS'Susanna'
p944
asS'Lilly'
p945
(lp946
S'Lydia'
p947
asS'Anna'
p948
(lp949
S'Hannah'
p950
aS'Susanna'
p951
asS'Tess'
p952
(lp953
S'Elizabeth'
p954
aS'Theresa'
p955
asS'Kathy'
p956
(lp957
S'Katherine'
p958
aS'Kathlene'
p959
asS'Bass'
p960
(lp961
S'Sebastian'
p962
asS'Fred'
p963
(lp964
S'Ferdinand'
p965
aS'Fredrick'
p966
aS'Frederick'
p967
aS'Gottfried'
p968
asS'Jill'
p969
(lp970
S'Julia'
p971
asS'Mimi'
p972
(lp973
S'Mary'
p974
aS'Wilhelmina'
p975
asS'Libby'
p976
(lp977
S'Elizabeth'
p978
asS'Corky'
p979
(lp980
S'Courtney'
p981
asS'Moe'
p982
(lp983
S'Maureen'
p984
asS'Nikki'
p985
(lp986
S'Nicole'
p987
asS'Louis'
p988
(lp989
S'Alois'
p990
asS'Jackie'
p991
(lp992
S'Jacqueline'
p993
asS'Stella'
p994
(lp995
S'Estella'
p996
aS'Estelle'
p997
aS'Esther'
p998
asS'Issy'
p999
(lp1000
S'Isabella'
p1001
aS'Isadora'
p1002
asS'Louie'
p1003
(lp1004
S'Louis'
p1005
asS'Winnie'
p1006
(lp1007
S'Edwina'
p1008
aS'Winifred'
p1009
asS'Maury'
p1010
(lp1011
S'Maurice'
p1012
asS'Bell'
p1013
(lp1014
S'Isabell'
p1015
aS'Isabella'
p1016
asS'Geoff'
p1017
(lp1018
S'Geoffrey'
p1019
asS'Pablo'
p1020
(lp1021
S'Paul'
p1022
asS'Ronny'
p1023
(lp1024
S'Ronald'
p1025
asS'Appy'
p1026
(lp1027
S'Apollonia'
p1028
asS'Belle'
p1029
(lp1030
S'Mabel'
p1031
aS'Sybil'
p1032
asS'Bella'
p1033
(lp1034
S'Arabella'
p1035
aS'Belinda'
p1036
aS'Elizabeth'
p1037
aS'Isabel'
p1038
aS'Isabella'
p1039
aS'Mirabel'
p1040
asS'Sene'
p1041
(lp1042
S'Asenath'
p1043
asS'Debbie'
p1044
(lp1045
S'Debra'
p1046
asS'Peg'
p1047
(lp1048
S'Margaret'
p1049
asS'Mame'
p1050
(lp1051
S'Margaret'
p1052
aS'Mary'
p1053
asS'Callie'
p1054
(lp1055
S'Caroline'
p1056
asS'Michl'
p1057
(lp1058
S'Michael'
p1059
asS'Peggy'
p1060
(lp1061
S'Margaret'
p1062
asS'Nanny'
p1063
(lp1064
S'Nancy'
p1065
asS'Terry'
p1066
(lp1067
S'Theresa'
p1068
asS'Richie'
p1069
(lp1070
S'Richard'
p1071
asS'Bebe'
p1072
(lp1073
S'Beatrice'
p1074
asS'Schorsch'
p1075
(lp1076
S'Georg'
p1077
asS'Arny'
p1078
(lp1079
S'Arnold'
p1080
asS'Norm'
p1081
(lp1082
S'Norman'
p1083
asS'Minnie'
p1084
(lp1085
S'Minerva'
p1086
aS'Philomina'
p1087
aS'Philomine'
p1088
asS'Annie'
p1089
(lp1090
S'Ann'
p1091
aS'Anna'
p1092
aS'Hannah'
p1093
aS'Susanna'
p1094
asS'Tennie'
p1095
(lp1096
S'Tennessee'
p1097
asS'Hansl'
p1098
(lp1099
S'Hans'
p1100
asS'Maggie'
p1101
(lp1102
S'Margaret'
p1103
asS'Neil'
p1104
(lp1105
S'Cornelius'
p1106
aS'Edward'
p1107
asS'Zak'
p1108
(lp1109
S'Isaac'
p1110
asS'Etta'
p1111
(lp1112
S'Loretta'
p1113
asS'Morey'
p1114
(lp1115
S'Morris'
p1116
asS'Hilda'
p1117
(lp1118
S'Hildegarde'
p1119
asS'Steve'
p1120
(lp1121
S'Steven'
p1122
asS'Meta'
p1123
(lp1124
S'Margareta'
p1125
asS'Cyndi'
p1126
(lp1127
S'Cynthia'
p1128
asS'Lizzie'
p1129
(lp1130
S'Elizabeth'
p1131
asS'Woody'
p1132
(lp1133
S'Woodrow'
p1134
asS'Cassie'
p1135
(lp1136
S'Casalena'
p1137
aS'Cassandra'
p1138
asS'Lila'
p1139
(lp1140
S'Delilah'
p1141
asS'Teddy'
p1142
(lp1143
S'Edward'
p1144
aS'Theodore'
p1145
asS'Trina'
p1146
(lp1147
S'Katherina'
p1148
asS'Conny'
p1149
(lp1150
S'Cornelia'
p1151
asS'Lou'
p1152
(lp1153
S'Louis'
p1154
aS'Louise'
p1155
asS'Willie'
p1156
(lp1157
S'Wilhelmina'
p1158
asS'Franzl'
p1159
(lp1160
S'Franz'
p1161
asS'Phelia'
p1162
(lp1163
S'Orphelia'
p1164
asS'Felty'
p1165
(lp1166
S'Valentine'
p1167
asS'Senie'
p1168
(lp1169
S'Asenath'
p1170
asS'Anton'
p1171
(lp1172
S'Antonin'
p1173
asS'Crissy'
p1174
(lp1175
S'Christina'
p1176
aS'Christine'
p1177
asS'Beth'
p1178
(lp1179
S'Elizabeth'
p1180
asS'Beto'
p1181
(lp1182
S'Alberto'
p1183
asS'Bud'
p1184
(lp1185
S'Jack'
p1186
asS'Polly'
p1187
(lp1188
S'Mary'
p1189
aS'Paula'
p1190
asS'Flora'
p1191
(lp1192
S'Florence'
p1193
asS'Phil'
p1194
(lp1195
S'Philip'
p1196
asS'Vicky'
p1197
(lp1198
S'Victoria'
p1199
asS'Myra'
p1200
(lp1201
S'Almira'
p1202
asS'Rufus'
p1203
(lp1204
S'Rafaelle'
p1205
aS'Raphael'
p1206
asS'Heinz'
p1207
(lp1208
S'Heinrich'
p1209
asS'Ann'
p1210
(lp1211
S'Deanne'
p1212
aS'Hannah'
p1213
aS'Susanna'
p1214
asS'Lisl'
p1215
(lp1216
S'Elizabeth'
p1217
asS'Nabby'
p1218
(lp1219
S'Abigail'
p1220
asS'Cy'
p1221
(lp1222
S'Cyrus'
p1223
asS'Angie'
p1224
(lp1225
S'Angela'
p1226
aS'Angeline'
p1227
asS'Nab'
p1228
(lp1229
S'Abel'
p1230
asS'Nannie'
p1231
(lp1232
S'Nancy'
p1233
asS'Rafe'
p1234
(lp1235
S'Rafaelle'
p1236
aS'Raphael'
p1237
asS'Dick'
p1238
(lp1239
S'Richard'
p1240
asS'Nan'
p1241
(lp1242
S'Ann'
p1243
aS'Hannah'
p1244
aS'Joanne'
p1245
aS'Nancy'
p1246
asS'Zac'
p1247
(lp1248
S'Isaac'
p1249
asS'Tim'
p1250
(lp1251
S'Timothy'
p1252
asS'Ellie'
p1253
(lp1254
S'Danielle'
p1255
aS'Eleanor'
p1256
aS'Emily'
p1257
aS'Gabriella'
p1258
aS'Luella'
p1259
asS'Nessie'
p1260
(lp1261
S'Agnes'
p1262
asS'Mena'
p1263
(lp1264
S'Philomena'
p1265
asS'Becky'
p1266
(lp1267
S'Rebecca'
p1268
asS'Eloise'
p1269
(lp1270
S'Heloise'
p1271
asS'Beat'
p1272
(lp1273
S'Beatrice'
p1274
asS'Luke'
p1275
(lp1276
S'Lukas'
p1277
asS'Nell'
p1278
(lp1279
S'Cornelia'
p1280
aS'Eleanor'
p1281
aS'Ellen'
p1282
aS'Helen'
p1283
asS'Freddie'
p1284
(lp1285
S'Frederick'
p1286
asS'Senga'
p1287
(lp1288
S'Agnes'
p1289
asS'Ike'
p1290
(lp1291
S'Ira'
p1292
asS'Amelia'
p1293
(lp1294
S'Emile'
p1295
aS'Emilia'
p1296
asS'Carol'
p1297
(lp1298
S'Caroline'
p1299
asS'Theo'
p1300
(lp1301
S'Theobald'
p1302
aS'Theodore'
p1303
asS'Danny'
p1304
(lp1305
S'Daniel'
p1306
asS'Doug'
p1307
(lp1308
S'Douglas'
p1309
asS'Cleat'
p1310
(lp1311
S'Cleatus'
p1312
asS'Lorene'
p1313
(lp1314
S'Florina'
p1315
asS'Stasi'
p1316
(lp1317
S'Anastasia'
p1318
asS'Greg'
p1319
(lp1320
S'Gregory'
p1321
asS'Nancy'
p1322
(lp1323
S'Ann'
p1324
aS'Anna'
p1325
aS'Agnes'
p1326
aS'Frances'
p1327
asS'Moni'
p1328
(lp1329
S'Monica'
p1330
asS'Vangie'
p1331
(lp1332
S'Evangeline'
p1333
asS'Rena'
p1334
(lp1335
S'Irene'
p1336
asS'Mini'
p1337
(lp1338
S'Minerva'
p1339
asS'Rene'
p1340
(lp1341
S'Irene'
p1342
asS'Zena'
p1343
(lp1344
S'Albertina'
p1345
asS'Mina'
p1346
(lp1347
S'Wilhelmina'
p1348
asS'Sadie'
p1349
(lp1350
S'Sally'
p1351
aS'Sarah'
p1352
asS'Sol'
p1353
(lp1354
S'Solomon'
p1355
asS'Madge'
p1356
(lp1357
S'Margaret'
p1358
asS'Manny'
p1359
(lp1360
S'Emanuel'
p1361
asS'Lula'
p1362
(lp1363
S'Luella'
p1364
asS'Lenora'
p1365
(lp1366
S'Eleanor'
p1367
asS'Nazi'
p1368
(lp1369
S'Ignazius'
p1370
asS'Pete'
p1371
(lp1372
S'Peter'
p1373
aS'Petr'
p1374
asS'Tibbie'
p1375
(lp1376
S'Isabella'
p1377
asS'Nicy'
p1378
(lp1379
S'Eunice'
p1380
asS'Vroni'
p1381
(lp1382
S'Veronika'
p1383
asS'Jeremy'
p1384
(lp1385
S'Jeremiah'
p1386
asS'Paddy'
p1387
(lp1388
S'Patrick'
p1389
asS'Traudl'
p1390
(lp1391
S'Edeltraud'
p1392
asS'Fay'
p1393
(lp1394
S'Faith'
p1395
asS'Zach'
p1396
(lp1397
S'Zachariah'
p1398
aS'Zachary'
p1399
asS'Derick'
p1400
(lp1401
S'Frederick'
p1402
asS'Fan'
p1403
(lp1404
S'Frances'
p1405
asS'Seppl'
p1406
(lp1407
S'Josef'
p1408
asS'Gab'
p1409
(lp1410
S'Gabriel'
p1411
asS'Mona'
p1412
(lp1413
S'Ramona'
p1414
asS'Harley'
p1415
(lp1416
S'Harlan'
p1417
asS'Winn'
p1418
(lp1419
S'Edwin'
p1420
asS'Betty'
p1421
(lp1422
S'Elizabeth'
p1423
asS'Gabi'
p1424
(lp1425
S'Gabriella'
p1426
asS'Art'
p1427
(lp1428
S'Artemis'
p1429
aS'Arthur'
p1430
asS'Gabe'
p1431
(lp1432
S'Gabriel'
p1433
asS'Morty'
p1434
(lp1435
S'Mortimer'
p1436
aS'Morton'
p1437
asS'Carrie'
p1438
(lp1439
S'Caroline'
p1440
asS'Nick'
p1441
(lp1442
S'Dominic'
p1443
aS'Nicholas'
p1444
asS'Quillie'
p1445
(lp1446
S'Aquilla'
p1447
asS'Fini'
p1448
(lp1449
S'Josefine'
p1450
asS'Liza'
p1451
(lp1452
S'Elizabeth'
p1453
asS'Steven'
p1454
(lp1455
S'Stephen'
p1456
asS'Fina'
p1457
(lp1458
S'Josephine'
p1459
asS'Genny'
p1460
(lp1461
S'Gwenevere'
p1462
asS'Mare'
p1463
(lp1464
S'Maria'
p1465
asS'Sue'
p1466
(lp1467
S'Susan'
p1468
aS'Suzanne'
p1469
asS'Bartl'
p1470
(lp1471
S'Bartholomew'
p1472
asS'Mandy'
p1473
(lp1474
S'Amanda'
p1475
aS'Samantha'
p1476
asS'Marv'
p1477
(lp1478
S'Marvin'
p1479
asS'Andy'
p1480
(lp1481
S'Andreas'
p1482
aS'Andrew'
p1483
asS'Ellen'
p1484
(lp1485
S'Eleanor'
p1486
asS'Tina'
p1487
(lp1488
S'Albertina'
p1489
aS'Augustina'
p1490
aS'Christina'
p1491
aS'Christine'
p1492
aS'Earnestine'
p1493
aS'Justina'
p1494
aS'Martina'
p1495
asS'Quil'
p1496
(lp1497
S'Aquilla'
p1498
asS'Barty'
p1499
(lp1500
S'Bartholomew'
p1501
asS'Neely'
p1502
(lp1503
S'Cornelia'
p1504
asS'Mike'
p1505
(lp1506
S'Michael'
p1507
asS'Flossie'
p1508
(lp1509
S'Florence'
p1510
asS'Mel'
p1511
(lp1512
S'Melvin'
p1513
asS'Hanna'
p1514
(lp1515
S'Johanna'
p1516
asS'Len'
p1517
(lp1518
S'Leonard'
p1519
asS'Leo'
p1520
(lp1521
S'Leonard'
p1522
asS'Dave'
p1523
(lp1524
S'David'
p1525
asS'Les'
p1526
(lp1527
S'Leslie'
p1528
asS'Vinny'
p1529
(lp1530
S'Vincent'
p1531
asS'Connie'
p1532
(lp1533
S'Constance'
p1534
aS'Conrad'
p1535
aS'Cornelia'
p1536
asS'Lew'
p1537
(lp1538
S'Lewis'
p1539
asS'Lulia'
p1540
(lp1541
S'Eulalia'
p1542
asS'Ursie'
p1543
(lp1544
S'Ursula'
p1545
asS'Abby'
p1546
(lp1547
S'Abigail'
p1548
asS'Debby'
p1549
(lp1550
S'Deborah'
p1551
asS'Cheri'
p1552
(lp1553
S'Cheryl'
p1554
asS'Bill'
p1555
(lp1556
S'William'
p1557
asS'Maud'
p1558
(lp1559
S'Magdalene'
p1560
aS'Matilda'
p1561
asS'Eph'
p1562
(lp1563
S'Ephraim'
p1564
asS'Bob'
p1565
(lp1566
S'Robert'
p1567
asS'Paco'
p1568
(lp1569
S'Francisco'
p1570
asS'Jimmy'
p1571
(lp1572
S'James'
p1573
asS'Bart'
p1574
(lp1575
S'Bartholomew'
p1576
asS'Johnny'
p1577
(lp1578
S'John'
p1579
asS'Dierk'
p1580
(lp1581
S'Diedrich'
p1582
asS'Rod'
p1583
(lp1584
S'Roderick'
p1585
aS'Rodney'
p1586
aS'Rodrigo'
p1587
asS'Yost'
p1588
(lp1589
S'Josef'
p1590
asS'Roy'
p1591
(lp1592
S'Leroy'
p1593
asS'Barb'
p1594
(lp1595
S'Barbara'
p1596
aS'Barbara'
p1597
asS'Reba'
p1598
(lp1599
S'Rebecca'
p1600
asS'Peppe'
p1601
(lp1602
S'Giuseppe'
p1603
asS'Bessie'
p1604
(lp1605
S'Elizabeth'
p1606
asS'Zeph'
p1607
(lp1608
S'Zephaniah'
p1609
asS'Katie'
p1610
(lp1611
S'Katherine'
p1612
aS'Katja'
p1613
asS'Eli'
p1614
(lp1615
S'Elias'
p1616
aS'Elijah'
p1617
aS'Elisha'
p1618
asS'Pepa'
p1619
(lp1620
S'Josefa'
p1621
asS'Pepe'
p1622
(lp1623
S'Jose'
p1624
asS'Bobbie'
p1625
(lp1626
S'Robert'
p1627
asS'Ada'
p1628
(lp1629
S'Adeline'
p1630
asS'Uschi'
p1631
(lp1632
S'Ursula'
p1633
asS'Hank'
p1634
(lp1635
S'Henry'
p1636
asS'Bertie'
p1637
(lp1638
S'Albert'
p1639
aS'Gilbert'
p1640
asS'Jamie'
p1641
(lp1642
S'James'
p1643
asS'Kitty'
p1644
(lp1645
S'Catherine'
p1646
asS'Erna'
p1647
(lp1648
S'Earnestine'
p1649
asS'Amy'
p1650
(lp1651
S'Amanda'
p1652
aS'Amelia'
p1653
asS'Hans'
p1654
(lp1655
S'Johan'
p1656
aS'Johann'
p1657
aS'Johannes'
p1658
asS'Ned'
p1659
(lp1660
S'Edmund'
p1661
aS'Edward'
p1662
aS'Norton'
p1663
asS'Lissi'
p1664
(lp1665
S'Elizabeth'
p1666
asS'Lissa'
p1667
(lp1668
S'Elizabeth'
p1669
asS'Silla'
p1670
(lp1671
S'Drusilla'
p1672
aS'Priscilla'
p1673
asS'Wally'
p1674
(lp1675
S'Wallace'
p1676
aS'Walter'
p1677
asS'Susie'
p1678
(lp1679
S'Susan'
p1680
aS'Suzanne'
p1681
asS'Flo'
p1682
(lp1683
S'Florence'
p1684
asS'Harry'
p1685
(lp1686
S'Harold'
p1687
aS'Harriet'
p1688
aS'Henry'
p1689
aS'Horace'
p1690
asS'Deb'
p1691
(lp1692
S'Deborah'
p1693
asS'Dee'
p1694
(lp1695
S'Deanne'
p1696
asS'Hias'
p1697
(lp1698
S'Matthias'
p1699
asS'Guiseppe'
p1700
(lp1701
S'Joseph'
p1702
asS'Jenny'
p1703
(lp1704
S'Genevieve'
p1705
aS'Jennifer'
p1706
asS'Jeff'
p1707
(lp1708
S'Jeffrey'
p1709
asS'Toni'
p1710
(lp1711
S'Anton'
p1712
aS'Antonia'
p1713
asS'Ted'
p1714
(lp1715
S'Edmund'
p1716
aS'Edward'
p1717
aS'Theodore'
p1718
asS'Leon'
p1719
(lp1720
S'Leonard'
p1721
asS'Walt'
p1722
(lp1723
S'Walter'
p1724
asS'Kenny'
p1725
(lp1726
S'Kenneth'
p1727
asS'Ferdie'
p1728
(lp1729
S'Ferdinand'
p1730
asS'Tony'
p1731
(lp1732
S'Anthony'
p1733
aS'Anton'
p1734
asS'Manda'
p1735
(lp1736
S'Amanda'
p1737
asS'Sis'
p1738
(lp1739
S'Cecilia'
p1740
aS'Frances'
p1741
asS'Dodie'
p1742
(lp1743
S'Delores'
p1744
asS'Josh'
p1745
(lp1746
S'Joshua'
p1747
asS'Trixie'
p1748
(lp1749
S'Beatrice'
p1750
aS'Beatrix'
p1751
asS'Sid'
p1752
(lp1753
S'Sidney'
p1754
asS'Virgie'
p1755
(lp1756
S'Virginia'
p1757
asS'Nate'
p1758
(lp1759
S'Nathan'
p1760
aS'Nathaniel'
p1761
asS'Nacho'
p1762
(lp1763
S'Ignacio'
p1764
asS'Jake'
p1765
(lp1766
S'Jacob'
p1767
asS'Mat'
p1768
(lp1769
S'Mathew'
p1770
asS'Fate'
p1771
(lp1772
S'Lafayette'
p1773
asS'May'
p1774
(lp1775
S'Margaret'
p1776
asS'Max'
p1777
(lp1778
S'Maximilian'
p1779
aS'Maxwell'
p1780
asS'Jakl'
p1781
(lp1782
S'Jakob'
p1783
asS'Maddy'
p1784
(lp1785
S'Madeline'
p1786
asS'Tracy'
p1787
(lp1788
S'Theresa'
p1789
asS'Nettie'
p1790
(lp1791
S'Annette'
p1792
aS'Jeanette'
p1793
asS'Gertie'
p1794
(lp1795
S'Gertrude'
p1796
asS'Gerry'
p1797
(lp1798
S'Gerald'
p1799
asS'Vicki'
p1800
(lp1801
S'Victoria'
p1802
asS'Alex'
p1803
(lp1804
S'Alexander'
p1805
asS'Lenny'
p1806
(lp1807
S'Leonard'
p1808
asS'Stacia'
p1809
(lp1810
S'Eustacia'
p1811
asS'Clem'
p1812
(lp1813
S'Clement'
p1814
aS'Clementine'
p1815
asS'Meg'
p1816
(lp1817
S'Margaret'
p1818
asS'Eve'
p1819
(lp1820
S'Evelyn'
p1821
asS'Cindy'
p1822
(lp1823
S'Cynthia'
p1824
aS'Lucinda'
p1825
asS'Cathy'
p1826
(lp1827
S'Catherine'
p1828
asS'Edie'
p1829
(lp1830
S'Edith'
p1831
asS'Alec'
p1832
(lp1833
S'Alexander'
p1834
asS'Ab'
p1835
(lp1836
S'Abner'
p1837
aS'Albert'
p1838
asS'Roxy'
p1839
(lp1840
S'Roxanne'
p1841
asS'Ag'
p1842
(lp1843
S'Agatha'
p1844
asS'Al'
p1845
(lp1846
S'Alan'
p1847
aS'Albert'
p1848
aS'Alexander'
p1849
aS'Alfred'
p1850
aS'Allen'
p1851
asS'Joy'
p1852
(lp1853
S'Joyce'
p1854
asS'Cherie'
p1855
(lp1856
S'Geraldine'
p1857
asS'Emily'
p1858
(lp1859
S'Emeline'
p1860
as.